; Function Attrs: nounwind uwtable
define i32 @nx_close_from_tcb(ptr noundef %0, i32 noundef %1) local_unnamed_addr #1 {
  %3 = alloca i64, align 8
  %4 = alloca %struct.file, align 8
  %5 = tail call ptr @nxsched_get_files_from_tcb(ptr noundef %0) #10
  %6 = icmp slt i32 %1, 0
  br i1 %6, label %29, label %7

7:                                                ; preds = %2
  %8 = getelementptr inbounds nuw i8, ptr %5, i64 1
  %9 = load i8, ptr %8, align 1
  %10 = zext i8 %9 to i32
  %11 = shl nuw nsw i32 %10, 3
  %.not = icmp samesign ult i32 %1, %11
  br i1 %.not, label %12, label %29

12:                                               ; preds = %7
  %13 = lshr i32 %1, 3
  call void @llvm.lifetime.start.p0(i64 8, ptr nonnull %3)
  call void asm sideeffect "\09pushfq\0A\09popq $0\0A", "=*rm,~{memory},~{dirflag},~{fpsr},~{flags}"(ptr nonnull elementtype(i64) %3) #10, !srcloc !9
  %14 = load i64, ptr %3, align 8
  call void @llvm.lifetime.end.p0(i64 8, ptr nonnull %3)
  call void asm sideeffect "cli", "~{memory},~{dirflag},~{fpsr},~{flags}"() #10, !srcloc !10
  %15 = getelementptr inbounds nuw i8, ptr %5, i64 8
  %16 = load ptr, ptr %15, align 8
  %17 = zext nneg i32 %13 to i64
  %18 = getelementptr inbounds nuw ptr, ptr %16, i64 %17
  %19 = load ptr, ptr %18, align 8
  %20 = and i64 %14, 512
  %.not.i.i.i = icmp eq i64 %20, 0
  br i1 %.not.i.i.i, label %files_fget.exit, label %21

21:                                               ; preds = %12
  call void asm sideeffect "sti", "~{memory},~{dirflag},~{fpsr},~{flags}"() #10, !srcloc !11
  br label %files_fget.exit

files_fget.exit:                                  ; preds = %12, %21
  %.zext11 = and i32 %1, 7
  %22 = zext nneg i32 %.zext11 to i64
  %23 = getelementptr inbounds nuw %struct.file, ptr %19, i64 %22
  %24 = getelementptr inbounds nuw i8, ptr %23, i64 8
  %25 = load ptr, ptr %24, align 8
  %26 = icmp eq ptr %25, null
  br i1 %26, label %29, label %27

27:                                               ; preds = %files_fget.exit
  call void @llvm.memcpy.p0.p0.i64(ptr noundef nonnull align 8 dereferenceable(24) %4, ptr noundef nonnull align 8 dereferenceable(24) %23, i64 24, i1 false)
  call void @llvm.memset.p0.i64(ptr noundef nonnull align 8 dereferenceable(24) %23, i8 0, i64 24, i1 false)
  %28 = call i32 @file_close(ptr noundef nonnull %4) #10
  br label %29

29:                                               ; preds = %files_fget.exit, %2, %7, %27
  %.0 = phi i32 [ %28, %27 ], [ -9, %7 ], [ -9, %2 ], [ -9, %files_fget.exit ]
  ret i32 %.0
}